; Function Attrs: nounwind uwtable
define void @validateMatrixInit(ptr noundef readonly byval(%struct.ComplexMatrixN) align 8 captures(none) %0, ptr noundef %1) local_unnamed_addr #3 {
  %3 = getelementptr inbounds nuw i8, ptr %0, i64 8
  %4 = load ptr, ptr %3, align 8, !tbaa !18
  %5 = icmp eq ptr %4, null
  %6 = getelementptr inbounds nuw i8, ptr %0, i64 16
  %7 = load ptr, ptr %6, align 8
  %8 = icmp eq ptr %7, null
  %.not2 = select i1 %5, i1 true, i1 %8
  br i1 %.not2, label %9, label %QuESTAssert.exit

9:                                                ; preds = %2
  tail call void @invalidQuESTInputError(ptr noundef nonnull @.str.50, ptr noundef %1)
  br label %QuESTAssert.exit

QuESTAssert.exit:                                 ; preds = %2, %9
  ret void
}